target datalayout = "e-m:e-p270:32:32-p271:32:32-p272:64:64-i64:64-i128:128-f80:128-n8:16:32:64-S128"
target triple = "x86_64-pc-linux-gnu"

%struct.stbir__sampler = type { ptr, ptr, ptr, ptr, %struct.stbir__scale_info, float, i32, ptr, ptr, i32, i32, i32, i32, i32, i32, i32, %struct.stbir__filter_extent_info, i32, i32, i32, i32, i32 }
%struct.stbir__scale_info = type { i32, i32, float, float, float, i32, i32, i32 }
%struct.stbir__filter_extent_info = type { i32, i32, i32 }
%struct.stbir__contributors = type { i32, i32 }
%struct.stbir__extents = type { %struct.stbir__contributors, [2 x i32], [2 x %struct.stbir__span] }
%struct.stbir__span = type { i32, i32, i32 }
%struct.stbir__info = type { %struct.stbir__sampler, %struct.stbir__sampler, ptr, ptr, i32, i32, i32, i32, i32, i32, ptr, ptr, ptr, %struct.stbir__extents, ptr, ptr, ptr, ptr, ptr, ptr, ptr, i32, i32, i32, i32, i32, i32, i32, i32, i32, i32, i64 }
%struct.stbir__per_split_info = type { ptr, i32, i32, i32, i32, i32, i32, i32, ptr, ptr, [64 x i8] }

; Function Attrs: nounwind uwtable
define void @stbir__encode_scanline(ptr noundef %0, ptr noundef %1, ptr noundef %2, i32 noundef %3) #3 {
  %5 = alloca ptr, align 8
  %6 = alloca ptr, align 8
  %7 = alloca ptr, align 8
  %8 = alloca i32, align 4
  %9 = alloca i32, align 4
  %10 = alloca i32, align 4
  %11 = alloca i32, align 4
  %12 = alloca ptr, align 8
  store ptr %0, ptr %5, align 8, !tbaa !519
  store ptr %1, ptr %6, align 8, !tbaa !3
  store ptr %2, ptr %7, align 8, !tbaa !21
  store i32 %3, ptr %8, align 4, !tbaa !26
  call void @llvm.lifetime.start.p0(i64 4, ptr %9) #12
  %13 = load ptr, ptr %5, align 8, !tbaa !519
  %14 = getelementptr inbounds nuw %struct.stbir__info, ptr %13, i32 0, i32 0
  %15 = getelementptr inbounds nuw %struct.stbir__sampler, ptr %14, i32 0, i32 4
  %16 = getelementptr inbounds nuw %struct.stbir__scale_info, ptr %15, i32 0, i32 1
  %17 = load i32, ptr %16, align 4, !tbaa !990
  store i32 %17, ptr %9, align 4, !tbaa !26
  call void @llvm.lifetime.start.p0(i64 4, ptr %10) #12
  %18 = load ptr, ptr %5, align 8, !tbaa !519
  %19 = getelementptr inbounds nuw %struct.stbir__info, ptr %18, i32 0, i32 29
  %20 = load i32, ptr %19, align 8, !tbaa !521
  store i32 %20, ptr %10, align 4, !tbaa !26
  call void @llvm.lifetime.start.p0(i64 4, ptr %11) #12
  %21 = load i32, ptr %9, align 4, !tbaa !26
  %22 = load i32, ptr %10, align 4, !tbaa !26
  %23 = mul nsw i32 %21, %22
  store i32 %23, ptr %11, align 4, !tbaa !26
  call void @llvm.lifetime.start.p0(i64 8, ptr %12) #12
  %24 = load ptr, ptr %5, align 8, !tbaa !519
  %25 = getelementptr inbounds nuw %struct.stbir__info, ptr %24, i32 0, i32 19
  %26 = load ptr, ptr %25, align 8, !tbaa !991
  %27 = icmp ne ptr %26, null
  br i1 %27, label %28, label %34

28:                                               ; preds = %4
  %29 = load ptr, ptr %5, align 8, !tbaa !519
  %30 = getelementptr inbounds nuw %struct.stbir__info, ptr %29, i32 0, i32 19
  %31 = load ptr, ptr %30, align 8, !tbaa !991
  %32 = load ptr, ptr %7, align 8, !tbaa !21
  %33 = load i32, ptr %11, align 4, !tbaa !26
  call void %31(ptr noundef %32, i32 noundef %33)
  br label %34

34:                                               ; preds = %28, %4
  %35 = load ptr, ptr %6, align 8, !tbaa !3
  store ptr %35, ptr %12, align 8, !tbaa !3
  %36 = load ptr, ptr %5, align 8, !tbaa !519
  %37 = getelementptr inbounds nuw %struct.stbir__info, ptr %36, i32 0, i32 12
  %38 = load ptr, ptr %37, align 8, !tbaa !992
  %39 = icmp ne ptr %38, null
  br i1 %39, label %40, label %42

40:                                               ; preds = %34
  %41 = load ptr, ptr %7, align 8, !tbaa !21
  store ptr %41, ptr %12, align 8, !tbaa !3
  br label %42

42:                                               ; preds = %40, %34
  %43 = load ptr, ptr %5, align 8, !tbaa !519
  %44 = getelementptr inbounds nuw %struct.stbir__info, ptr %43, i32 0, i32 20
  %45 = load ptr, ptr %44, align 8, !tbaa !993
  %46 = load ptr, ptr %12, align 8, !tbaa !3
  %47 = load i32, ptr %11, align 4, !tbaa !26
  %48 = load ptr, ptr %7, align 8, !tbaa !21
  call void %45(ptr noundef %46, i32 noundef %47, ptr noundef %48)
  %49 = load ptr, ptr %5, align 8, !tbaa !519
  %50 = getelementptr inbounds nuw %struct.stbir__info, ptr %49, i32 0, i32 12
  %51 = load ptr, ptr %50, align 8, !tbaa !992
  %52 = icmp ne ptr %51, null
  br i1 %52, label %53, label %63

53:                                               ; preds = %42
  %54 = load ptr, ptr %5, align 8, !tbaa !519
  %55 = getelementptr inbounds nuw %struct.stbir__info, ptr %54, i32 0, i32 12
  %56 = load ptr, ptr %55, align 8, !tbaa !992
  %57 = load ptr, ptr %12, align 8, !tbaa !3
  %58 = load i32, ptr %9, align 4, !tbaa !26
  %59 = load i32, ptr %8, align 4, !tbaa !26
  %60 = load ptr, ptr %5, align 8, !tbaa !519
  %61 = getelementptr inbounds nuw %struct.stbir__info, ptr %60, i32 0, i32 11
  %62 = load ptr, ptr %61, align 8, !tbaa !533
  call void %56(ptr noundef %57, i32 noundef %58, i32 noundef %59, ptr noundef %62)
  br label %63

63:                                               ; preds = %53, %42
  call void @llvm.lifetime.end.p0(i64 8, ptr %12) #12
  call void @llvm.lifetime.end.p0(i64 4, ptr %11) #12
  call void @llvm.lifetime.end.p0(i64 4, ptr %10) #12
  call void @llvm.lifetime.end.p0(i64 4, ptr %9) #12
  ret void
}

; Function Attrs: nounwind uwtable
define ptr @stbir__get_ring_buffer_entry(ptr noundef %0, ptr noundef %1, i32 noundef %2) #3 {
  %4 = alloca ptr, align 8
  %5 = alloca ptr, align 8
  %6 = alloca i32, align 4
  store ptr %0, ptr %4, align 8, !tbaa !519
  store ptr %1, ptr %5, align 8, !tbaa !3
  store i32 %2, ptr %6, align 4, !tbaa !26
  %7 = load ptr, ptr %5, align 8, !tbaa !3
  %8 = getelementptr inbounds nuw %struct.stbir__per_split_info, ptr %7, i32 0, i32 8
  %9 = load ptr, ptr %8, align 8, !tbaa !994
  %10 = load i32, ptr %6, align 4, !tbaa !26
  %11 = load ptr, ptr %4, align 8, !tbaa !519
  %12 = getelementptr inbounds nuw %struct.stbir__info, ptr %11, i32 0, i32 6
  %13 = load i32, ptr %12, align 8, !tbaa !996
  %14 = mul nsw i32 %10, %13
  %15 = sext i32 %14 to i64
  %16 = getelementptr inbounds i8, ptr %9, i64 %15
  ret ptr %16
}

; Function Attrs: nounwind uwtable
define void @stbir__encode_first_scanline_from_scatter(ptr noundef %0, ptr noundef %1) #3 {
  %3 = alloca ptr, align 8
  %4 = alloca ptr, align 8
  %5 = alloca ptr, align 8
  store ptr %0, ptr %3, align 8, !tbaa !519
  store ptr %1, ptr %4, align 8, !tbaa !3
  call void @llvm.lifetime.start.p0(i64 8, ptr %5) #12
  %6 = load ptr, ptr %3, align 8, !tbaa !519
  %7 = load ptr, ptr %4, align 8, !tbaa !3
  %8 = load ptr, ptr %4, align 8, !tbaa !3
  %9 = getelementptr inbounds nuw %struct.stbir__per_split_info, ptr %8, i32 0, i32 3
  %10 = load i32, ptr %9, align 8, !tbaa !997
  %11 = call ptr @stbir__get_ring_buffer_entry(ptr noundef %6, ptr noundef %7, i32 noundef %10)
  store ptr %11, ptr %5, align 8, !tbaa !21
  %12 = load ptr, ptr %3, align 8, !tbaa !519
  %13 = load ptr, ptr %3, align 8, !tbaa !519
  %14 = getelementptr inbounds nuw %struct.stbir__info, ptr %13, i32 0, i32 3
  %15 = load ptr, ptr %14, align 8, !tbaa !1012
  %16 = load ptr, ptr %4, align 8, !tbaa !3
  %17 = getelementptr inbounds nuw %struct.stbir__per_split_info, ptr %16, i32 0, i32 1
  %18 = load i32, ptr %17, align 8, !tbaa !998
  %19 = sext i32 %18 to i64
  %20 = load ptr, ptr %3, align 8, !tbaa !519
  %21 = getelementptr inbounds nuw %struct.stbir__info, ptr %20, i32 0, i32 5
  %22 = load i32, ptr %21, align 4, !tbaa !1013
  %23 = sext i32 %22 to i64
  %24 = mul i64 %19, %23
  %25 = getelementptr inbounds nuw i8, ptr %15, i64 %24
  %26 = load ptr, ptr %5, align 8, !tbaa !21
  %27 = load ptr, ptr %4, align 8, !tbaa !3
  %28 = getelementptr inbounds nuw %struct.stbir__per_split_info, ptr %27, i32 0, i32 1
  %29 = load i32, ptr %28, align 8, !tbaa !998
  call void @stbir__encode_scanline(ptr noundef %12, ptr noundef %25, ptr noundef %26, i32 noundef %29)
  %30 = load ptr, ptr %5, align 8, !tbaa !21
  %31 = getelementptr inbounds float, ptr %30, i64 0
  store float 0x47EC363CC0000000, ptr %31, align 4, !tbaa !29
  %32 = load ptr, ptr %4, align 8, !tbaa !3
  %33 = getelementptr inbounds nuw %struct.stbir__per_split_info, ptr %32, i32 0, i32 1
  %34 = load i32, ptr %33, align 8, !tbaa !998
  %35 = add nsw i32 %34, 1
  store i32 %35, ptr %33, align 8, !tbaa !998
  %36 = load ptr, ptr %4, align 8, !tbaa !3
  %37 = getelementptr inbounds nuw %struct.stbir__per_split_info, ptr %36, i32 0, i32 3
  %38 = load i32, ptr %37, align 8, !tbaa !997
  %39 = add nsw i32 %38, 1
  store i32 %39, ptr %37, align 8, !tbaa !997
  %40 = load ptr, ptr %3, align 8, !tbaa !519
  %41 = getelementptr inbounds nuw %struct.stbir__info, ptr %40, i32 0, i32 7
  %42 = load i32, ptr %41, align 4, !tbaa !999
  %43 = icmp eq i32 %39, %42
  br i1 %43, label %44, label %47

44:                                               ; preds = %2
  %45 = load ptr, ptr %4, align 8, !tbaa !3
  %46 = getelementptr inbounds nuw %struct.stbir__per_split_info, ptr %45, i32 0, i32 3
  store i32 0, ptr %46, align 8, !tbaa !997
  br label %47

47:                                               ; preds = %44, %2
  call void @llvm.lifetime.end.p0(i64 8, ptr %5) #12
  ret void
}