; Function Attrs: nounwind uwtable
define void @stbir__encode_first_scanline_from_scatter(ptr noundef readonly captures(none) %0, ptr noundef captures(none) %1) local_unnamed_addr #4 {
  %3 = getelementptr inbounds nuw i8, ptr %1, i64 16
  %4 = load i32, ptr %3, align 8, !tbaa !907
  %5 = getelementptr inbounds nuw i8, ptr %1, i64 40
  %6 = load ptr, ptr %5, align 8, !tbaa !904
  %7 = getelementptr inbounds nuw i8, ptr %0, i64 328
  %8 = load i32, ptr %7, align 8, !tbaa !906
  %9 = mul nsw i32 %8, %4
  %10 = sext i32 %9 to i64
  %11 = getelementptr inbounds i8, ptr %6, i64 %10
  %12 = getelementptr inbounds nuw i8, ptr %0, i64 312
  %13 = load ptr, ptr %12, align 8, !tbaa !922
  %14 = getelementptr inbounds nuw i8, ptr %1, i64 8
  %15 = load i32, ptr %14, align 8, !tbaa !908
  %16 = sext i32 %15 to i64
  %17 = getelementptr inbounds nuw i8, ptr %0, i64 324
  %18 = load i32, ptr %17, align 4, !tbaa !923
  %19 = sext i32 %18 to i64
  %20 = mul nsw i64 %19, %16
  %21 = getelementptr inbounds nuw i8, ptr %13, i64 %20
  %22 = getelementptr inbounds nuw i8, ptr %0, i64 36
  %23 = load i32, ptr %22, align 4, !tbaa !900
  %24 = getelementptr inbounds nuw i8, ptr %0, i64 496
  %25 = load i32, ptr %24, align 8, !tbaa !445
  %26 = mul nsw i32 %25, %23
  %27 = getelementptr inbounds nuw i8, ptr %0, i64 448
  %28 = load ptr, ptr %27, align 8, !tbaa !901
  %.not.i = icmp eq ptr %28, null
  br i1 %.not.i, label %30, label %29

29:                                               ; preds = %2
  tail call void %28(ptr noundef %11, i32 noundef %26) #24
  br label %30

30:                                               ; preds = %29, %2
  %31 = getelementptr inbounds nuw i8, ptr %0, i64 360
  %32 = load ptr, ptr %31, align 8, !tbaa !902
  %.not22.i = icmp eq ptr %32, null
  %spec.select.i = select i1 %.not22.i, ptr %21, ptr %11
  %33 = getelementptr inbounds nuw i8, ptr %0, i64 456
  %34 = load ptr, ptr %33, align 8, !tbaa !903
  tail call void %34(ptr noundef %spec.select.i, i32 noundef %26, ptr noundef %11) #24
  %35 = load ptr, ptr %31, align 8, !tbaa !902
  %.not23.i = icmp eq ptr %35, null
  br i1 %.not23.i, label %stbir__encode_scanline.exit, label %36

36:                                               ; preds = %30
  %37 = getelementptr inbounds nuw i8, ptr %0, i64 352
  %38 = load ptr, ptr %37, align 8, !tbaa !457
  tail call void %35(ptr noundef %spec.select.i, i32 noundef %23, i32 noundef %15, ptr noundef %38) #24
  br label %stbir__encode_scanline.exit

stbir__encode_scanline.exit:                      ; preds = %30, %36
  store float 0x47EC363CC0000000, ptr %11, align 4, !tbaa !50
  %39 = load i32, ptr %14, align 8, !tbaa !908
  %40 = add nsw i32 %39, 1
  store i32 %40, ptr %14, align 8, !tbaa !908
  %41 = load i32, ptr %3, align 8, !tbaa !907
  %42 = add nsw i32 %41, 1
  %43 = getelementptr inbounds nuw i8, ptr %0, i64 332
  %44 = load i32, ptr %43, align 4, !tbaa !909
  %45 = icmp eq i32 %42, %44
  %spec.store.select = select i1 %45, i32 0, i32 %42
  store i32 %spec.store.select, ptr %3, align 8
  ret void
}